; Function Attrs: null_pointer_is_valid sspstrong uwtable
define internal i32 @dissect_nbap_E_DCH_LogicalChannelToModifyItem(ptr noundef %0, i32 noundef %1, ptr noundef %2, ptr noundef %3, i32 noundef %4) #0 {
  %6 = load i32, ptr @ett_nbap_E_DCH_LogicalChannelToModifyItem, align 4
  %7 = tail call i32 @dissect_per_sequence(ptr noundef %0, i32 noundef %1, ptr noundef %2, ptr noundef %3, i32 noundef %4, i32 noundef %6, ptr noundef nonnull @E_DCH_LogicalChannelToModifyItem_sequence)
  %8 = getelementptr inbounds nuw i8, ptr %2, i64 16
  %9 = load ptr, ptr %8, align 8
  %10 = getelementptr inbounds nuw i8, ptr %9, i64 408
  %11 = load ptr, ptr %10, align 8
  %12 = load i32, ptr @proto_nbap, align 4
  %13 = tail call ptr @p_get_proto_data(ptr noundef %11, ptr noundef %9, i32 noundef %12, i32 noundef 0)
  %14 = icmp eq ptr %13, null
  br i1 %14, label %15, label %nbap_get_private_data.exit

15:                                               ; preds = %5
  %16 = load ptr, ptr %10, align 8
  %17 = tail call noalias dereferenceable_or_null(268056) ptr @wmem_alloc0(ptr noundef %16, i64 noundef 268056) #10
  %18 = load ptr, ptr %10, align 8
  %19 = load i32, ptr @proto_nbap, align 4
  tail call void @p_add_proto_data(ptr noundef %18, ptr noundef %9, i32 noundef %19, i32 noundef 0, ptr noundef %17)
  %20 = getelementptr inbounds nuw i8, ptr %17, i64 68
  store i32 3, ptr %20, align 4
  %21 = getelementptr inbounds nuw i8, ptr %17, i64 108
  store i8 0, ptr %21, align 4
  %22 = getelementptr inbounds nuw i8, ptr %17, i64 12
  store i32 65535, ptr %22, align 4
  %23 = getelementptr inbounds nuw i8, ptr %17, i64 40
  store i32 65535, ptr %23, align 8
  %24 = getelementptr inbounds nuw i8, ptr %17, i64 109
  store i8 2, ptr %24, align 1
  %25 = getelementptr i8, ptr %17, i64 267508
  br label %26

26:                                               ; preds = %26, %15
  %indvars.iv.i = phi i64 [ 0, %15 ], [ %indvars.iv.next.i, %26 ]
  %.idx.i = mul nuw nsw i64 %indvars.iv.i, 40
  %27 = getelementptr i8, ptr %25, i64 %.idx.i
  store i8 1, ptr %27, align 4
  %indvars.iv.next.i = add nuw nsw i64 %indvars.iv.i, 1
  %exitcond.not.i = icmp eq i64 %indvars.iv.next.i, 8
  br i1 %exitcond.not.i, label %nbap_get_private_data.exit, label %26, !llvm.loop !9

nbap_get_private_data.exit:                       ; preds = %26, %5
  %.0.i = phi ptr [ %13, %5 ], [ %17, %26 ]
  %28 = getelementptr inbounds nuw i8, ptr %.0.i, i64 16
  %29 = load i32, ptr %28, align 8
  %30 = add i32 %29, 1
  store i32 %30, ptr %28, align 8
  ret i32 %7
}